#include <math.h>
#include <stdio.h>
#include <stdlib.h>
#include <string.h>
#define ASCII 100
#define MAX_N 100
#define MAX_M 100
#define ASC 100
#define null 0
#define Len 100
#define SUM 100
#define NUMBER 100
#define SIZE 100
#define MAXN 100
#define MAXSIZE 100
#define maxrow 100
#define maxcol 100
#define mx 100
#define NUM 100
#define ROW 100
#define COL 100
#define SIZEE 100
#define MAX_LEN 100
#define LIU 100
#define maxsize 100
#define NUM 100
#define NO 100
#define Null 0
#define ID_DIGITS 100
#define INT_MAX 100
#define INT_MIN 100
#define FALSE 0
#define TRUE 1
#define hang 100
#define lie 100
#define lll 100
#define LEM 100
#define K 100
#define INF 100
#define MONTH 12
#define true 1
#define PI 100
#define maxlen 100
#define maxinputint 100
#define STUDENT_NUM 100
#define TOTAL 100
#define LEN1 100
#define student_num 100
#define MAXLEN 100
#define MAXL 100
#define nMax 100
#define Vocabularysize 100
#define Sentencelength 100
#define LENGTH 100
#define ARRAY 100
#define len 100
#define tsuhu 100
#define l 100
#define h 100
#define maxn 100
#define MAXLENGTH 100
#define SEX 100
    
 struct book
   {
	   int num;
	   char writer[26];
   };
   int m;

int main()
{

  int i;
   scanf("%d",&m);
	struct book *p;
	p=(struct book*)malloc(sizeof(struct book)*m);
	for(i=0;i<m;i++)
	{
		scanf("%d %s",&p[i].num,p[i].writer);
	}
	int j=0,u=0;
	int *a;
	a=(int *)malloc(sizeof(int)*150);
	for(i='A';i<='z';i++)
	a[i]=0;

	for(i='A';i<='Z';i++)
	{
		for(j=0;j<m;j++)
		{
			for(u=0;u<strlen(p[j].writer);u++)
			{
				if(i==p[j].writer[u])
				{
					a[i]++;
					break;
				}
			}
		}
	}
	int max=0;
	for(i='A';i<='Z';i++)
	{
		if(max<a[i])
			max=a[i];
	}
	for(i='A';i<='Z';i++)
	{
		if(max==a[i])
		break;	
	}
	printf("%c\n%d\n",i,a[i]);
	for(j=0;j<m;j++)
	{
          for(u=0;u<strlen(p[j].writer);u++)
			{
				if(i==p[j].writer[u])
				{
				    printf("%d\n",p[j].num);
					break;
				}
			}	
	}	

	





   return 0;
}
                             
                                      
            
    
    
